target datalayout = "e-m:e-p270:32:32-p271:32:32-p272:64:64-i64:64-i128:128-f80:128-n8:16:32:64-S128"
target triple = "x86_64-pc-linux-gnu"

%struct.InputFile = type { ptr, ptr, i32 }
%struct.AVFormatContext = type { ptr, ptr, ptr, ptr, ptr, i32, i32, ptr, i32, ptr, i32, ptr, ptr, i64, i64, i64, i32, i32, i32, i64, i64, ptr, i32, i32, ptr, i32, i32, i32, i32, ptr, i64, i32, i32, %struct.AVIOInterruptCB, i32, i32, i32, i32, i64, i32, i32, i32, i32, i32, i32, i32, i32, i32, i32, i32, i32, i64, i32, i32, i32, i32, i32, ptr, ptr, ptr, ptr, i32, ptr, ptr, ptr, ptr, i32, ptr, ptr, i64, ptr, ptr, ptr, i64 }
%struct.AVIOInterruptCB = type { ptr, ptr }
%struct.AVRational = type { i32, i32 }
%struct.AVDictionaryEntry = type { ptr, ptr }
%struct.AVInputFormat = type { ptr, ptr, i32, ptr, ptr, ptr, ptr }

@do_show_format_tags = internal global i32 0, align 4
@do_bitexact = internal global i32 0, align 4
@.str.277 = private unnamed_addr constant [8 x i8] c"unknown\00", align 1
@.str.307 = private unnamed_addr constant [4 x i8] c"N/A\00", align 1
@.str.339 = private unnamed_addr constant [9 x i8] c"duration\00", align 1
@.str.341 = private unnamed_addr constant [5 x i8] c"size\00", align 1
@unit_byte_str = internal constant [5 x i8] c"byte\00", align 1
@stdout = external global ptr, align 8
@.str.604 = private unnamed_addr constant [11 x i8] c"nb_streams\00", align 1
@.str.635 = private unnamed_addr constant [11 x i8] c"start_time\00", align 1
@.str.637 = private unnamed_addr constant [9 x i8] c"bit_rate\00", align 1
@unit_bit_per_second_str = internal constant [6 x i8] c"bit/s\00", align 1
@.str.704 = private unnamed_addr constant [9 x i8] c"filename\00", align 1
@.str.705 = private unnamed_addr constant [12 x i8] c"nb_programs\00", align 1
@.str.706 = private unnamed_addr constant [17 x i8] c"nb_stream_groups\00", align 1
@.str.707 = private unnamed_addr constant [12 x i8] c"format_name\00", align 1
@.str.708 = private unnamed_addr constant [17 x i8] c"format_long_name\00", align 1
@.str.709 = private unnamed_addr constant [12 x i8] c"probe_score\00", align 1

; Function Attrs: inlinehint nounwind uwtable
define internal i32 @show_tags(ptr noundef %0, ptr noundef %1, i32 noundef %2) #5 {
  %4 = alloca i32, align 4
  %5 = alloca ptr, align 8
  %6 = alloca ptr, align 8
  %7 = alloca i32, align 4
  %8 = alloca ptr, align 8
  %9 = alloca i32, align 4
  %10 = alloca i32, align 4
  store ptr %0, ptr %5, align 8, !tbaa !28
  store ptr %1, ptr %6, align 8, !tbaa !116
  store i32 %2, ptr %7, align 4, !tbaa !11
  call void @llvm.lifetime.start.p0(i64 8, ptr %8) #14
  store ptr null, ptr %8, align 8, !tbaa !161
  call void @llvm.lifetime.start.p0(i64 4, ptr %9) #14
  store i32 0, ptr %9, align 4, !tbaa !11
  %11 = load ptr, ptr %6, align 8, !tbaa !116
  %12 = icmp ne ptr %11, null
  br i1 %12, label %14, label %13

13:                                               ; preds = %3
  store i32 0, ptr %4, align 4
  store i32 1, ptr %10, align 4
  br label %37

14:                                               ; preds = %3
  %15 = load ptr, ptr %5, align 8, !tbaa !28
  %16 = load i32, ptr %7, align 4, !tbaa !11
  call void @avtext_print_section_header(ptr noundef %15, ptr noundef null, i32 noundef %16)
  br label %17

17:                                               ; preds = %33, %14
  %18 = load ptr, ptr %6, align 8, !tbaa !116
  %19 = load ptr, ptr %8, align 8, !tbaa !161
  %20 = call ptr @av_dict_iterate(ptr noundef %18, ptr noundef %19)
  store ptr %20, ptr %8, align 8, !tbaa !161
  %21 = icmp ne ptr %20, null
  br i1 %21, label %22, label %34

22:                                               ; preds = %17
  %23 = load ptr, ptr %5, align 8, !tbaa !28
  %24 = load ptr, ptr %8, align 8, !tbaa !161
  %25 = getelementptr inbounds nuw %struct.AVDictionaryEntry, ptr %24, i32 0, i32 0
  %26 = load ptr, ptr %25, align 8, !tbaa !164
  %27 = load ptr, ptr %8, align 8, !tbaa !161
  %28 = getelementptr inbounds nuw %struct.AVDictionaryEntry, ptr %27, i32 0, i32 1
  %29 = load ptr, ptr %28, align 8, !tbaa !254
  %30 = call i32 @avtext_print_string(ptr noundef %23, ptr noundef %26, ptr noundef %29, i32 noundef 2)
  store i32 %30, ptr %9, align 4, !tbaa !11
  %31 = icmp slt i32 %30, 0
  br i1 %31, label %32, label %33

32:                                               ; preds = %22
  br label %34

33:                                               ; preds = %22
  br label %17, !llvm.loop !255

34:                                               ; preds = %32, %17
  %35 = load ptr, ptr %5, align 8, !tbaa !28
  call void @avtext_print_section_footer(ptr noundef %35)
  %36 = load i32, ptr %9, align 4, !tbaa !11
  store i32 %36, ptr %4, align 4
  store i32 1, ptr %10, align 4
  br label %37

37:                                               ; preds = %34, %13
  call void @llvm.lifetime.end.p0(i64 4, ptr %9) #14
  call void @llvm.lifetime.end.p0(i64 8, ptr %8) #14
  %38 = load i32, ptr %4, align 4
  ret i32 %38
}

; Function Attrs: nounwind uwtable
define internal i32 @show_format(ptr noundef %0, ptr noundef %1) #0 {
  %3 = alloca ptr, align 8
  %4 = alloca ptr, align 8
  %5 = alloca ptr, align 8
  %6 = alloca i64, align 8
  %7 = alloca i32, align 4
  %8 = alloca %struct.AVRational, align 4
  %9 = alloca %struct.AVRational, align 4
  store ptr %0, ptr %3, align 8, !tbaa !28
  store ptr %1, ptr %4, align 8, !tbaa !158
  call void @llvm.lifetime.start.p0(i64 8, ptr %5) #14
  %10 = load ptr, ptr %4, align 8, !tbaa !158
  %11 = getelementptr inbounds nuw %struct.InputFile, ptr %10, i32 0, i32 0
  %12 = load ptr, ptr %11, align 8, !tbaa !83
  store ptr %12, ptr %5, align 8, !tbaa !160
  call void @llvm.lifetime.start.p0(i64 8, ptr %6) #14
  %13 = load ptr, ptr %5, align 8, !tbaa !160
  %14 = getelementptr inbounds nuw %struct.AVFormatContext, ptr %13, i32 0, i32 4
  %15 = load ptr, ptr %14, align 8, !tbaa !206
  %16 = icmp ne ptr %15, null
  br i1 %16, label %17, label %22

17:                                               ; preds = %2
  %18 = load ptr, ptr %5, align 8, !tbaa !160
  %19 = getelementptr inbounds nuw %struct.AVFormatContext, ptr %18, i32 0, i32 4
  %20 = load ptr, ptr %19, align 8, !tbaa !206
  %21 = call i64 @avio_size(ptr noundef %20)
  br label %23

22:                                               ; preds = %2
  br label %23

23:                                               ; preds = %22, %17
  %24 = phi i64 [ %21, %17 ], [ -1, %22 ]
  store i64 %24, ptr %6, align 8, !tbaa !114
  call void @llvm.lifetime.start.p0(i64 4, ptr %7) #14
  store i32 0, ptr %7, align 4, !tbaa !11
  %25 = load ptr, ptr %3, align 8, !tbaa !28
  call void @avtext_print_section_header(ptr noundef %25, ptr noundef null, i32 noundef 4)
  %26 = load ptr, ptr %3, align 8, !tbaa !28
  %27 = load ptr, ptr %5, align 8, !tbaa !160
  %28 = getelementptr inbounds nuw %struct.AVFormatContext, ptr %27, i32 0, i32 12
  %29 = load ptr, ptr %28, align 8, !tbaa !163
  %30 = call i32 @avtext_print_string(ptr noundef %26, ptr noundef @.str.704, ptr noundef %29, i32 noundef 2)
  %31 = load ptr, ptr %3, align 8, !tbaa !28
  %32 = load ptr, ptr %5, align 8, !tbaa !160
  %33 = getelementptr inbounds nuw %struct.AVFormatContext, ptr %32, i32 0, i32 6
  %34 = load i32, ptr %33, align 4, !tbaa !87
  %35 = zext i32 %34 to i64
  call void @avtext_print_integer(ptr noundef %31, ptr noundef @.str.604, i64 noundef %35, i32 noundef 0)
  %36 = load ptr, ptr %3, align 8, !tbaa !28
  %37 = load ptr, ptr %5, align 8, !tbaa !160
  %38 = getelementptr inbounds nuw %struct.AVFormatContext, ptr %37, i32 0, i32 23
  %39 = load i32, ptr %38, align 4, !tbaa !187
  %40 = zext i32 %39 to i64
  call void @avtext_print_integer(ptr noundef %36, ptr noundef @.str.705, i64 noundef %40, i32 noundef 0)
  %41 = load ptr, ptr %3, align 8, !tbaa !28
  %42 = load ptr, ptr %5, align 8, !tbaa !160
  %43 = getelementptr inbounds nuw %struct.AVFormatContext, ptr %42, i32 0, i32 8
  %44 = load i32, ptr %43, align 8, !tbaa !192
  %45 = zext i32 %44 to i64
  call void @avtext_print_integer(ptr noundef %41, ptr noundef @.str.706, i64 noundef %45, i32 noundef 0)
  %46 = load ptr, ptr %3, align 8, !tbaa !28
  %47 = load ptr, ptr %5, align 8, !tbaa !160
  %48 = getelementptr inbounds nuw %struct.AVFormatContext, ptr %47, i32 0, i32 1
  %49 = load ptr, ptr %48, align 8, !tbaa !207
  %50 = getelementptr inbounds nuw %struct.AVInputFormat, ptr %49, i32 0, i32 0
  %51 = load ptr, ptr %50, align 8, !tbaa !208
  %52 = call i32 @avtext_print_string(ptr noundef %46, ptr noundef @.str.707, ptr noundef %51, i32 noundef 0)
  %53 = load i32, ptr @do_bitexact, align 4, !tbaa !11
  %54 = icmp ne i32 %53, 0
  br i1 %54, label %74, label %55

55:                                               ; preds = %23
  %56 = load ptr, ptr %5, align 8, !tbaa !160
  %57 = getelementptr inbounds nuw %struct.AVFormatContext, ptr %56, i32 0, i32 1
  %58 = load ptr, ptr %57, align 8, !tbaa !207
  %59 = getelementptr inbounds nuw %struct.AVInputFormat, ptr %58, i32 0, i32 1
  %60 = load ptr, ptr %59, align 8, !tbaa !211
  %61 = icmp ne ptr %60, null
  br i1 %61, label %62, label %70

62:                                               ; preds = %55
  %63 = load ptr, ptr %3, align 8, !tbaa !28
  %64 = load ptr, ptr %5, align 8, !tbaa !160
  %65 = getelementptr inbounds nuw %struct.AVFormatContext, ptr %64, i32 0, i32 1
  %66 = load ptr, ptr %65, align 8, !tbaa !207
  %67 = getelementptr inbounds nuw %struct.AVInputFormat, ptr %66, i32 0, i32 1
  %68 = load ptr, ptr %67, align 8, !tbaa !211
  %69 = call i32 @avtext_print_string(ptr noundef %63, ptr noundef @.str.708, ptr noundef %68, i32 noundef 0)
  br label %73

70:                                               ; preds = %55
  %71 = load ptr, ptr %3, align 8, !tbaa !28
  %72 = call i32 @avtext_print_string(ptr noundef %71, ptr noundef @.str.708, ptr noundef @.str.277, i32 noundef 1)
  br label %73

73:                                               ; preds = %70, %62
  br label %74

74:                                               ; preds = %73, %23
  %75 = load ptr, ptr %3, align 8, !tbaa !28
  %76 = load ptr, ptr %5, align 8, !tbaa !160
  %77 = getelementptr inbounds nuw %struct.AVFormatContext, ptr %76, i32 0, i32 13
  %78 = load i64, ptr %77, align 8, !tbaa !185
  %79 = getelementptr inbounds nuw %struct.AVRational, ptr %8, i32 0, i32 0
  store i32 1, ptr %79, align 4, !tbaa !143
  %80 = getelementptr inbounds nuw %struct.AVRational, ptr %8, i32 0, i32 1
  store i32 1000000, ptr %80, align 4, !tbaa !144
  call void @avtext_print_time(ptr noundef %75, ptr noundef @.str.635, i64 noundef %78, ptr noundef %8, i32 noundef 0)
  %81 = load ptr, ptr %3, align 8, !tbaa !28
  %82 = load ptr, ptr %5, align 8, !tbaa !160
  %83 = getelementptr inbounds nuw %struct.AVFormatContext, ptr %82, i32 0, i32 14
  %84 = load i64, ptr %83, align 8, !tbaa !212
  %85 = getelementptr inbounds nuw %struct.AVRational, ptr %9, i32 0, i32 0
  store i32 1, ptr %85, align 4, !tbaa !143
  %86 = getelementptr inbounds nuw %struct.AVRational, ptr %9, i32 0, i32 1
  store i32 1000000, ptr %86, align 4, !tbaa !144
  call void @avtext_print_time(ptr noundef %81, ptr noundef @.str.339, i64 noundef %84, ptr noundef %9, i32 noundef 0)
  %87 = load i64, ptr %6, align 8, !tbaa !114
  %88 = icmp sge i64 %87, 0
  br i1 %88, label %89, label %93

89:                                               ; preds = %74
  %90 = load ptr, ptr %3, align 8, !tbaa !28
  %91 = load i64, ptr %6, align 8, !tbaa !114
  %92 = trunc i64 %91 to i32
  call void @avtext_print_unit_int(ptr noundef %90, ptr noundef @.str.341, i32 noundef %92, ptr noundef @unit_byte_str)
  br label %96

93:                                               ; preds = %74
  %94 = load ptr, ptr %3, align 8, !tbaa !28
  %95 = call i32 @avtext_print_string(ptr noundef %94, ptr noundef @.str.341, ptr noundef @.str.307, i32 noundef 1)
  br label %96

96:                                               ; preds = %93, %89
  %97 = load ptr, ptr %5, align 8, !tbaa !160
  %98 = getelementptr inbounds nuw %struct.AVFormatContext, ptr %97, i32 0, i32 15
  %99 = load i64, ptr %98, align 8, !tbaa !213
  %100 = icmp sgt i64 %99, 0
  br i1 %100, label %101, label %107

101:                                              ; preds = %96
  %102 = load ptr, ptr %3, align 8, !tbaa !28
  %103 = load ptr, ptr %5, align 8, !tbaa !160
  %104 = getelementptr inbounds nuw %struct.AVFormatContext, ptr %103, i32 0, i32 15
  %105 = load i64, ptr %104, align 8, !tbaa !213
  %106 = trunc i64 %105 to i32
  call void @avtext_print_unit_int(ptr noundef %102, ptr noundef @.str.637, i32 noundef %106, ptr noundef @unit_bit_per_second_str)
  br label %110

107:                                              ; preds = %96
  %108 = load ptr, ptr %3, align 8, !tbaa !28
  %109 = call i32 @avtext_print_string(ptr noundef %108, ptr noundef @.str.637, ptr noundef @.str.307, i32 noundef 1)
  br label %110

110:                                              ; preds = %107, %101
  %111 = load ptr, ptr %3, align 8, !tbaa !28
  %112 = load ptr, ptr %5, align 8, !tbaa !160
  %113 = getelementptr inbounds nuw %struct.AVFormatContext, ptr %112, i32 0, i32 55
  %114 = load i32, ptr %113, align 4, !tbaa !214
  %115 = sext i32 %114 to i64
  call void @avtext_print_integer(ptr noundef %111, ptr noundef @.str.709, i64 noundef %115, i32 noundef 0)
  %116 = load i32, ptr @do_show_format_tags, align 4, !tbaa !11
  %117 = icmp ne i32 %116, 0
  br i1 %117, label %118, label %124

118:                                              ; preds = %110
  %119 = load ptr, ptr %3, align 8, !tbaa !28
  %120 = load ptr, ptr %5, align 8, !tbaa !160
  %121 = getelementptr inbounds nuw %struct.AVFormatContext, ptr %120, i32 0, i32 29
  %122 = load ptr, ptr %121, align 8, !tbaa !215
  %123 = call i32 @show_tags(ptr noundef %119, ptr noundef %122, i32 noundef 5)
  store i32 %123, ptr %7, align 4, !tbaa !11
  br label %124

124:                                              ; preds = %118, %110
  %125 = load ptr, ptr %3, align 8, !tbaa !28
  call void @avtext_print_section_footer(ptr noundef %125)
  %126 = load ptr, ptr @stdout, align 8, !tbaa !16
  %127 = call i32 @fflush(ptr noundef %126)
  %128 = load i32, ptr %7, align 4, !tbaa !11
  call void @llvm.lifetime.end.p0(i64 4, ptr %7) #14
  call void @llvm.lifetime.end.p0(i64 8, ptr %6) #14
  call void @llvm.lifetime.end.p0(i64 8, ptr %5) #14
  ret i32 %128
}