; Function Attrs: nounwind uwtable
define internal fastcc i32 @show_format(ptr noundef %0, ptr readonly captures(none) %.0.val) unnamed_addr #0 {
  %2 = alloca %struct.AVRational, align 4
  %3 = alloca %struct.AVRational, align 4
  %4 = getelementptr inbounds nuw i8, ptr %.0.val, i64 32
  %5 = load ptr, ptr %4, align 8, !tbaa !264
  %.not = icmp eq ptr %5, null
  br i1 %.not, label %8, label %6

6:                                                ; preds = %1
  %7 = tail call i64 @avio_size(ptr noundef nonnull %5) #20
  br label %8

8:                                                ; preds = %1, %6
  %9 = phi i64 [ %7, %6 ], [ -1, %1 ]
  tail call void @avtext_print_section_header(ptr noundef %0, ptr noundef null, i32 noundef 4) #20
  %10 = getelementptr inbounds nuw i8, ptr %.0.val, i64 88
  %11 = load ptr, ptr %10, align 8, !tbaa !77
  %12 = tail call i32 @avtext_print_string(ptr noundef %0, ptr noundef nonnull @.str.704, ptr noundef %11, i32 noundef 2) #20
  %13 = getelementptr inbounds nuw i8, ptr %.0.val, i64 44
  %14 = load i32, ptr %13, align 4, !tbaa !93
  %15 = zext i32 %14 to i64
  tail call void @avtext_print_integer(ptr noundef %0, ptr noundef nonnull @.str.604, i64 noundef %15, i32 noundef 0) #20
  %16 = getelementptr inbounds nuw i8, ptr %.0.val, i64 164
  %17 = load i32, ptr %16, align 4, !tbaa !161
  %18 = zext i32 %17 to i64
  tail call void @avtext_print_integer(ptr noundef %0, ptr noundef nonnull @.str.705, i64 noundef %18, i32 noundef 0) #20
  %19 = getelementptr inbounds nuw i8, ptr %.0.val, i64 56
  %20 = load i32, ptr %19, align 8, !tbaa !177
  %21 = zext i32 %20 to i64
  tail call void @avtext_print_integer(ptr noundef %0, ptr noundef nonnull @.str.706, i64 noundef %21, i32 noundef 0) #20
  %22 = getelementptr inbounds nuw i8, ptr %.0.val, i64 8
  %23 = load ptr, ptr %22, align 8, !tbaa !183
  %24 = load ptr, ptr %23, align 8, !tbaa !265
  %25 = tail call i32 @avtext_print_string(ptr noundef %0, ptr noundef nonnull @.str.707, ptr noundef %24, i32 noundef 0) #20
  %26 = load i32, ptr @do_bitexact, align 4, !tbaa !11
  %.not39 = icmp eq i32 %26, 0
  br i1 %.not39, label %27, label %35

27:                                               ; preds = %8
  %28 = load ptr, ptr %22, align 8, !tbaa !183
  %29 = getelementptr inbounds nuw i8, ptr %28, i64 8
  %30 = load ptr, ptr %29, align 8, !tbaa !266
  %.not40 = icmp eq ptr %30, null
  br i1 %.not40, label %33, label %31

31:                                               ; preds = %27
  %32 = tail call i32 @avtext_print_string(ptr noundef %0, ptr noundef nonnull @.str.708, ptr noundef nonnull %30, i32 noundef 0) #20
  br label %35

33:                                               ; preds = %27
  %34 = tail call i32 @avtext_print_string(ptr noundef %0, ptr noundef nonnull @.str.708, ptr noundef nonnull @.str.277, i32 noundef 1) #20
  br label %35

35:                                               ; preds = %31, %33, %8
  %36 = getelementptr inbounds nuw i8, ptr %.0.val, i64 96
  %37 = load i64, ptr %36, align 8, !tbaa !159
  store i32 1, ptr %2, align 4, !tbaa !267
  %38 = getelementptr inbounds nuw i8, ptr %2, i64 4
  store i32 1000000, ptr %38, align 4, !tbaa !268
  call void @avtext_print_time(ptr noundef %0, ptr noundef nonnull @.str.635, i64 noundef %37, ptr noundef nonnull %2, i32 noundef 0) #20
  %39 = getelementptr inbounds nuw i8, ptr %.0.val, i64 104
  %40 = load i64, ptr %39, align 8, !tbaa !269
  store i32 1, ptr %3, align 4, !tbaa !267
  %41 = getelementptr inbounds nuw i8, ptr %3, i64 4
  store i32 1000000, ptr %41, align 4, !tbaa !268
  call void @avtext_print_time(ptr noundef %0, ptr noundef nonnull @.str.339, i64 noundef %40, ptr noundef nonnull %3, i32 noundef 0) #20
  %42 = icmp sgt i64 %9, -1
  br i1 %42, label %43, label %45

43:                                               ; preds = %35
  %44 = trunc i64 %9 to i32
  call void @avtext_print_unit_int(ptr noundef %0, ptr noundef nonnull @.str.341, i32 noundef %44, ptr noundef nonnull @unit_byte_str) #20
  br label %47

45:                                               ; preds = %35
  %46 = call i32 @avtext_print_string(ptr noundef %0, ptr noundef nonnull @.str.341, ptr noundef nonnull @.str.307, i32 noundef 1) #20
  br label %47

47:                                               ; preds = %45, %43
  %48 = getelementptr inbounds nuw i8, ptr %.0.val, i64 112
  %49 = load i64, ptr %48, align 8, !tbaa !270
  %50 = icmp sgt i64 %49, 0
  br i1 %50, label %51, label %53

51:                                               ; preds = %47
  %52 = trunc i64 %49 to i32
  call void @avtext_print_unit_int(ptr noundef %0, ptr noundef nonnull @.str.637, i32 noundef %52, ptr noundef nonnull @unit_bit_per_second_str) #20
  br label %55

53:                                               ; preds = %47
  %54 = call i32 @avtext_print_string(ptr noundef %0, ptr noundef nonnull @.str.637, ptr noundef nonnull @.str.307, i32 noundef 1) #20
  br label %55

55:                                               ; preds = %53, %51
  %56 = getelementptr inbounds nuw i8, ptr %.0.val, i64 324
  %57 = load i32, ptr %56, align 4, !tbaa !271
  %58 = sext i32 %57 to i64
  call void @avtext_print_integer(ptr noundef %0, ptr noundef nonnull @.str.709, i64 noundef %58, i32 noundef 0) #20
  %.b = load i1, ptr @do_show_format_tags, align 4
  br i1 %.b, label %59, label %show_tags.exit

59:                                               ; preds = %55
  %60 = getelementptr inbounds nuw i8, ptr %.0.val, i64 192
  %61 = load ptr, ptr %60, align 8, !tbaa !272
  %.not.i = icmp eq ptr %61, null
  br i1 %.not.i, label %show_tags.exit, label %62

62:                                               ; preds = %59
  call void @avtext_print_section_header(ptr noundef %0, ptr noundef null, i32 noundef 5) #20
  %63 = call ptr @av_dict_iterate(ptr noundef nonnull %61, ptr noundef null) #20
  %.not1617.i = icmp eq ptr %63, null
  br i1 %.not1617.i, label %._crit_edge18.i, label %.lr.ph.i

64:                                               ; preds = %.lr.ph.i
  %65 = call ptr @av_dict_iterate(ptr noundef nonnull %61, ptr noundef nonnull %66) #20
  %.not16.i = icmp eq ptr %65, null
  br i1 %.not16.i, label %._crit_edge18.i, label %.lr.ph.i, !llvm.loop !172

.lr.ph.i:                                         ; preds = %62, %64
  %66 = phi ptr [ %65, %64 ], [ %63, %62 ]
  %67 = load ptr, ptr %66, align 8, !tbaa !90
  %68 = getelementptr inbounds nuw i8, ptr %66, i64 8
  %69 = load ptr, ptr %68, align 8, !tbaa !173
  %70 = call i32 @avtext_print_string(ptr noundef %0, ptr noundef %67, ptr noundef %69, i32 noundef 2) #20
  %71 = icmp slt i32 %70, 0
  br i1 %71, label %._crit_edge.i, label %64, !llvm.loop !172

._crit_edge.i:                                    ; preds = %.lr.ph.i
  br label %._crit_edge18.i, !llvm.loop !172

._crit_edge18.i:                                  ; preds = %64, %._crit_edge.i, %62
  %.1.i = phi i32 [ %70, %._crit_edge.i ], [ 0, %62 ], [ %70, %64 ]
  call void @avtext_print_section_footer(ptr noundef %0) #20
  br label %show_tags.exit

show_tags.exit:                                   ; preds = %._crit_edge18.i, %59, %55
  %.0 = phi i32 [ 0, %55 ], [ %.1.i, %._crit_edge18.i ], [ 0, %59 ]
  call void @avtext_print_section_footer(ptr noundef %0) #20
  %72 = load ptr, ptr @stdout, align 8, !tbaa !9
  %73 = call i32 @fflush(ptr noundef %72)
  ret i32 %.0
}